(lp0
(lp1
(lp2
(lp3
I0
aI0
aI0
aI0
aS'A dusty rest stop.'
p4
aaa(lp5
(lp6
I0
aI1
aI0
aI0
aS'At the foot of a mountain, a visa.'
p7
aaa(lp8
(lp9
I0
aI2
aI0
aI0
aS'A grassy knoll.'
p10
aaa(lp11
(lp12
I0
aI3
aI0
aI0
ag7
aaa(lp13
(lp14
I0
aI4
aI0
aI0
ag7
aaa(lp15
(lp16
I0
aI5
aI0
aI0
aS'A rocky outcropping'
p17
aaa(lp18
(lp19
I0
aI6
aI0
aI0
ag17
aaa(lp20
(lp21
I0
aI7
aI0
aI0
ag4
aaa(lp22
(lp23
I0
aI8
aI0
aI0
ag7
aaa(lp24
(lp25
I0
aI9
aI0
aI0
ag10
aaaa(lp26
(lp27
(lp28
I1
aI0
aI0
aI0
ag4
aaa(lp29
(lp30
I1
aI1
aI0
aI0
ag7
aaa(lp31
(lp32
I1
aI2
aI0
aI0
ag4
aaa(lp33
(lp34
I1
aI3
aI0
aI0
ag17
aaa(lp35
(lp36
I1
aI4
aI0
aI0
ag17
aaa(lp37
(lp38
I1
aI5
aI0
aI0
ag10
aaa(lp39
(lp40
I1
aI6
aI0
aI0
ag17
aaa(lp41
(lp42
I1
aI7
aI0
aI0
ag17
aaa(lp43
(lp44
I1
aI8
aI0
aI0
ag17
aaa(lp45
(lp46
I1
aI9
aI0
aI0
aS'A road wanders here.'
p47
aaaa(lp48
(lp49
(lp50
I2
aI0
aI0
aI0
ag10
aaa(lp51
(lp52
I2
aI1
aI0
aI0
ag47
aaa(lp53
(lp54
I2
aI2
aI0
aI0
ag10
aaa(lp55
(lp56
I2
aI3
aI0
aI0
ag10
aaa(lp57
(lp58
I2
aI4
aI0
aI0
ag4
aaa(lp59
(lp60
I2
aI5
aI0
aI0
ag47
aaa(lp61
(lp62
I2
aI6
aI0
aI0
ag4
aaa(lp63
(lp64
I2
aI7
aI0
aI0
ag47
aaa(lp65
(lp66
I2
aI8
aI0
aI0
ag10
aaa(lp67
(lp68
I2
aI9
aI0
aI0
ag4
aaaa(lp69
(lp70
(lp71
I3
aI0
aI0
aI0
ag17
aaa(lp72
(lp73
I3
aI1
aI0
aI0
ag4
aaa(lp74
(lp75
I3
aI2
aI0
aI0
ag10
aaa(lp76
(lp77
I3
aI3
aI0
aI0
ag47
aaa(lp78
(lp79
I3
aI4
aI0
aI0
ag7
aaa(lp80
(lp81
I3
aI5
aI0
aI0
ag4
aaa(lp82
(lp83
I3
aI6
aI0
aI0
ag10
aaa(lp84
(lp85
I3
aI7
aI0
aI0
ag7
aaa(lp86
(lp87
I3
aI8
aI0
aI0
ag4
aaa(lp88
(lp89
I3
aI9
aI0
aI0
ag4
aaaa(lp90
(lp91
(lp92
I4
aI0
aI0
aI0
ag17
aaa(lp93
(lp94
I4
aI1
aI0
aI0
ag7
aaa(lp95
(lp96
I4
aI2
aI0
aI0
ag10
aaa(lp97
(lp98
I4
aI3
aI0
aI0
ag10
aaa(lp99
(lp100
I4
aI4
aI0
aI0
ag17
aaa(lp101
(lp102
I4
aI5
aI0
aI0
ag10
aaa(lp103
(lp104
I4
aI6
aI0
aI0
ag17
aaa(lp105
(lp106
I4
aI7
aI0
aI0
ag7
aaa(lp107
(lp108
I4
aI8
aI0
aI0
ag7
aaa(lp109
(lp110
I4
aI9
aI0
aI0
ag47
aaaa(lp111
(lp112
(lp113
I5
aI0
aI0
aI0
ag47
aaa(lp114
(lp115
I5
aI1
aI0
aI0
ag4
aaa(lp116
(lp117
I5
aI2
aI0
aI0
ag7
aaa(lp118
(lp119
I5
aI3
aI0
aI0
ag4
aaa(lp120
(lp121
I5
aI4
aI0
aI0
ag10
aaa(lp122
(lp123
I5
aI5
aI0
aI0
ag17
aaa(lp124
(lp125
I5
aI6
aI0
aI0
ag4
aaa(lp126
(lp127
I5
aI7
aI0
aI0
ag7
aaa(lp128
(lp129
I5
aI8
aI0
aI0
ag10
aaa(lp130
(lp131
I5
aI9
aI0
aI0
ag7
aaaa(lp132
(lp133
(lp134
I6
aI0
aI0
aI0
ag17
aaa(lp135
(lp136
I6
aI1
aI0
aI0
ag17
aaa(lp137
(lp138
I6
aI2
aI0
aI0
ag4
aaa(lp139
(lp140
I6
aI3
aI0
aI0
ag17
aaa(lp141
(lp142
I6
aI4
aI0
aI0
ag7
aaa(lp143
(lp144
I6
aI5
aI0
aI0
ag7
aaa(lp145
(lp146
I6
aI6
aI0
aI0
ag17
aaa(lp147
(lp148
I6
aI7
aI0
aI0
ag7
aaa(lp149
(lp150
I6
aI8
aI0
aI0
ag17
aaa(lp151
(lp152
I6
aI9
aI0
aI0
ag47
aaaa(lp153
(lp154
(lp155
I7
aI0
aI0
aI0
ag7
aaa(lp156
(lp157
I7
aI1
aI0
aI0
ag47
aaa(lp158
(lp159
I7
aI2
aI0
aI0
ag7
aaa(lp160
(lp161
I7
aI3
aI0
aI0
ag4
aaa(lp162
(lp163
I7
aI4
aI0
aI0
ag47
aaa(lp164
(lp165
I7
aI5
aI0
aI0
ag17
aaa(lp166
(lp167
I7
aI6
aI0
aI0
ag4
aaa(lp168
(lp169
I7
aI7
aI0
aI0
ag10
aaa(lp170
(lp171
I7
aI8
aI0
aI0
ag7
aaa(lp172
(lp173
I7
aI9
aI0
aI0
ag47
aaaa(lp174
(lp175
(lp176
I8
aI0
aI0
aI0
ag47
aaa(lp177
(lp178
I8
aI1
aI0
aI0
ag7
aaa(lp179
(lp180
I8
aI2
aI0
aI0
ag4
aaa(lp181
(lp182
I8
aI3
aI0
aI0
ag17
aaa(lp183
(lp184
I8
aI4
aI0
aI0
ag7
aaa(lp185
(lp186
I8
aI5
aI0
aI0
ag17
aaa(lp187
(lp188
I8
aI6
aI0
aI0
ag17
aaa(lp189
(lp190
I8
aI7
aI0
aI0
ag17
aaa(lp191
(lp192
I8
aI8
aI0
aI0
ag10
aaa(lp193
(lp194
I8
aI9
aI0
aI0
ag17
aaaa(lp195
(lp196
(lp197
I9
aI0
aI0
aI0
ag4
aaa(lp198
(lp199
I9
aI1
aI0
aI0
ag10
aaa(lp200
(lp201
I9
aI2
aI0
aI0
ag10
aaa(lp202
(lp203
I9
aI3
aI0
aI0
ag47
aaa(lp204
(lp205
I9
aI4
aI0
aI0
ag4
aaa(lp206
(lp207
I9
aI5
aI0
aI0
ag10
aaa(lp208
(lp209
I9
aI6
aI0
aI0
ag4
aaa(lp210
(lp211
I9
aI7
aI0
aI0
ag47
aaa(lp212
(lp213
I9
aI8
aI0
aI0
ag17
aaa(lp214
(lp215
I9
aI9
aI0
aI0
ag10
aaaa(lp216
(lp217
(lp218
I0
aI0
aI0
aI0
aS'A grassy knoll.'
p219
aaa(lp220
(lp221
I0
aI1
aI0
aI0
aS'At the foot of a mountain, a visa.'
p222
aaa(lp223
(lp224
I0
aI2
aI0
aI0
aS'A dusty rest stop.'
p225
aaa(lp226
(lp227
I0
aI3
aI0
aI0
ag225
aaa(lp228
(lp229
I0
aI4
aI0
aI0
ag219
aaaa(lp230
(lp231
(lp232
I1
aI0
aI0
aI0
aS'A road wanders here.'
p233
aaa(lp234
(lp235
I1
aI1
aI0
aI0
ag219
aaa(lp236
(lp237
I1
aI2
aI0
aI0
ag219
aaa(lp238
(lp239
I1
aI3
aI0
aI0
ag233
aaa(lp240
(lp241
I1
aI4
aI0
aI0
aS'A rocky outcropping'
p242
aaaa(lp243
(lp244
(lp245
I2
aI0
aI0
aI0
ag219
aaa(lp246
(lp247
I2
aI1
aI0
aI0
ag242
aaa(lp248
(lp249
I2
aI2
aI0
aI0
ag242
aaa(lp250
(lp251
I2
aI3
aI0
aI0
ag225
aaa(lp252
(lp253
I2
aI4
aI0
aI0
ag233
aaaa(lp254
(lp255
(lp256
I3
aI0
aI0
aI0
ag225
aaa(lp257
(lp258
I3
aI1
aI0
aI0
ag219
aaa(lp259
(lp260
I3
aI2
aI0
aI0
ag222
aaa(lp261
(lp262
I3
aI3
aI0
aI0
ag225
aaa(lp263
(lp264
I3
aI4
aI0
aI0
ag219
aaaa(lp265
(lp266
(lp267
I4
aI0
aI0
aI0
ag225
aaa(lp268
(lp269
I4
aI1
aI0
aI0
ag222
aaa(lp270
(lp271
I4
aI2
aI0
aI0
ag233
aaa(lp272
(lp273
I4
aI3
aI0
aI0
ag242
aaa(lp274
(lp275
I4
aI4
aI0
aI0
ag222
aaaa.